target datalayout = "e-m:e-p270:32:32-p271:32:32-p272:64:64-i64:64-i128:128-f80:128-n8:16:32:64-S128"
target triple = "x86_64-pc-linux-gnu"

%struct._packet_info = type { ptr, ptr, i32, i32, %struct.nstime_t, %struct.nstime_t, %struct.nstime_t, i8, ptr, ptr, ptr, ptr, %struct._address, %struct._address, %struct._address, %struct._address, %struct._address, %struct._address, i32, ptr, i8, [3 x i8], %struct.anon, i32, i32, i32, i32, ptr, i8, ptr, ptr, i16, i16, i32, i32, i16, i32, i32, ptr, ptr, ptr, i8, i8, i16, i16, i16, i32, i16, i16, ptr, ptr, ptr, ptr, ptr, i32, i32 }
%struct.nstime_t = type { i64, i32 }
%struct._address = type { i32, i32, ptr, ptr }
%struct.anon = type { i8, [3 x i8] }

@hf_zvt_card_name = internal global i32 0, align 4

; Function Attrs: inlinehint null_pointer_is_valid sspstrong uwtable
define internal i32 @dissect_zvt_card_name(ptr noundef %0, i32 noundef %1, ptr noundef %2, ptr noundef %3) #4 {
  %5 = alloca ptr, align 8
  %6 = alloca i32, align 4
  %7 = alloca ptr, align 8
  %8 = alloca ptr, align 8
  %9 = alloca i8, align 1
  %10 = alloca i8, align 1
  %11 = alloca i8, align 1
  %12 = alloca ptr, align 8
  store ptr %0, ptr %5, align 8
  store i32 %1, ptr %6, align 4
  store ptr %2, ptr %7, align 8
  store ptr %3, ptr %8, align 8
  call void @llvm.lifetime.start.p0(i64 1, ptr %9) #7
  %13 = load ptr, ptr %5, align 8
  %14 = load i32, ptr %6, align 4
  %15 = call zeroext i8 @tvb_get_uint8(ptr noundef %13, i32 noundef %14)
  %16 = zext i8 %15 to i32
  %17 = and i32 %16, 15
  %18 = trunc i32 %17 to i8
  store i8 %18, ptr %9, align 1
  call void @llvm.lifetime.start.p0(i64 1, ptr %10) #7
  %19 = load ptr, ptr %5, align 8
  %20 = load i32, ptr %6, align 4
  %21 = add i32 %20, 1
  %22 = call zeroext i8 @tvb_get_uint8(ptr noundef %19, i32 noundef %21)
  %23 = zext i8 %22 to i32
  %24 = and i32 %23, 15
  %25 = trunc i32 %24 to i8
  store i8 %25, ptr %10, align 1
  call void @llvm.lifetime.start.p0(i64 1, ptr %11) #7
  %26 = load i8, ptr %9, align 1
  %27 = zext i8 %26 to i32
  %28 = mul i32 %27, 10
  %29 = load i8, ptr %10, align 1
  %30 = zext i8 %29 to i32
  %31 = add i32 %28, %30
  %32 = trunc i32 %31 to i8
  store i8 %32, ptr %11, align 1
  call void @llvm.lifetime.start.p0(i64 8, ptr %12) #7
  store ptr null, ptr %12, align 8
  %33 = load ptr, ptr %8, align 8
  %34 = load i32, ptr @hf_zvt_card_name, align 4
  %35 = load ptr, ptr %5, align 8
  %36 = load i32, ptr %6, align 4
  %37 = add i32 %36, 2
  %38 = load i8, ptr %11, align 1
  %39 = zext i8 %38 to i32
  %40 = load ptr, ptr %7, align 8
  %41 = getelementptr inbounds nuw %struct._packet_info, ptr %40, i32 0, i32 51
  %42 = load ptr, ptr %41, align 8
  %43 = call ptr @proto_tree_add_item_ret_string(ptr noundef %33, i32 noundef %34, ptr noundef %35, i32 noundef %37, i32 noundef %39, i32 noundef 0, ptr noundef %42, ptr noundef %12)
  %44 = load i8, ptr %11, align 1
  %45 = zext i8 %44 to i32
  %46 = add i32 2, %45
  call void @llvm.lifetime.end.p0(i64 8, ptr %12) #7
  call void @llvm.lifetime.end.p0(i64 1, ptr %11) #7
  call void @llvm.lifetime.end.p0(i64 1, ptr %10) #7
  call void @llvm.lifetime.end.p0(i64 1, ptr %9) #7
  ret i32 %46
}