; Function Attrs: inlinehint null_pointer_is_valid sspstrong uwtable
define internal range(i32 2, 168) i32 @dissect_zvt_card_name(ptr noundef %0, i32 noundef %1, ptr noundef readonly captures(none) %2, ptr noundef %3) #4 {
  %5 = alloca ptr, align 8
  %6 = tail call zeroext i8 @tvb_get_uint8(ptr noundef %0, i32 noundef %1)
  %7 = and i8 %6, 15
  %8 = add i32 %1, 1
  %9 = tail call zeroext i8 @tvb_get_uint8(ptr noundef %0, i32 noundef %8)
  %10 = and i8 %9, 15
  %narrow = mul nuw i8 %7, 10
  %11 = add nuw i8 %narrow, %10
  call void @llvm.lifetime.start.p0(i64 8, ptr nonnull %5) #7
  store ptr null, ptr %5, align 8
  %12 = load i32, ptr @hf_zvt_card_name, align 4
  %13 = add i32 %1, 2
  %14 = zext i8 %11 to i32
  %15 = getelementptr inbounds nuw i8, ptr %2, i64 408
  %16 = load ptr, ptr %15, align 8
  %17 = call ptr @proto_tree_add_item_ret_string(ptr noundef %3, i32 noundef %12, ptr noundef %0, i32 noundef %13, i32 noundef %14, i32 noundef 0, ptr noundef %16, ptr noundef nonnull %5)
  %18 = add nuw nsw i32 %14, 2
  call void @llvm.lifetime.end.p0(i64 8, ptr nonnull %5) #7
  ret i32 %18
}